target datalayout = "e-m:e-p270:32:32-p271:32:32-p272:64:64-i64:64-i128:128-f80:128-n8:16:32:64-S128"
target triple = "x86_64-pc-linux-gnu"

%struct.FT_BBox_ = type { i64, i64, i64, i64 }
%struct.FT_Outline_Funcs_ = type { ptr, ptr, ptr, ptr, i32, i64 }
%struct.TBBox_Rec_ = type { %struct.FT_Vector_, %struct.FT_BBox_ }
%struct.FT_Vector_ = type { i64, i64 }
%struct.FT_Outline_ = type { i16, i16, ptr, ptr, ptr, i32 }

@__const.FT_Outline_Get_BBox.cbox = private unnamed_addr constant %struct.FT_BBox_ { i64 2147483647, i64 2147483647, i64 -2147483647, i64 -2147483647 }, align 8
@__const.FT_Outline_Get_BBox.bbox = private unnamed_addr constant %struct.FT_BBox_ { i64 2147483647, i64 2147483647, i64 -2147483647, i64 -2147483647 }, align 8
@bbox_interface = internal constant %struct.FT_Outline_Funcs_ { ptr @BBox_Move_To, ptr @BBox_Line_To, ptr @BBox_Conic_To, ptr @BBox_Cubic_To, i32 0, i64 0 }, align 8

; Function Attrs: nounwind uwtable
define i32 @FT_Outline_Get_BBox(ptr noundef %0, ptr noundef %1) #0 {
  %3 = alloca i32, align 4
  %4 = alloca ptr, align 8
  %5 = alloca ptr, align 8
  %6 = alloca %struct.FT_BBox_, align 8
  %7 = alloca %struct.FT_BBox_, align 8
  %8 = alloca ptr, align 8
  %9 = alloca i16, align 2
  %10 = alloca i32, align 4
  %11 = alloca %struct.TBBox_Rec_, align 8
  store ptr %0, ptr %4, align 8
  store ptr %1, ptr %5, align 8
  call void @llvm.memcpy.p0.p0.i64(ptr align 8 %6, ptr align 8 @__const.FT_Outline_Get_BBox.cbox, i64 32, i1 false)
  call void @llvm.memcpy.p0.p0.i64(ptr align 8 %7, ptr align 8 @__const.FT_Outline_Get_BBox.bbox, i64 32, i1 false)
  %12 = load ptr, ptr %5, align 8
  %13 = icmp ne ptr %12, null
  br i1 %13, label %15, label %14

14:                                               ; preds = %2
  store i32 6, ptr %3, align 4
  br label %208

15:                                               ; preds = %2
  %16 = load ptr, ptr %4, align 8
  %17 = icmp ne ptr %16, null
  br i1 %17, label %19, label %18

18:                                               ; preds = %15
  store i32 20, ptr %3, align 4
  br label %208

19:                                               ; preds = %15
  %20 = load ptr, ptr %4, align 8
  %21 = getelementptr inbounds %struct.FT_Outline_, ptr %20, i32 0, i32 1
  %22 = load i16, ptr %21, align 2
  %23 = zext i16 %22 to i32
  %24 = icmp eq i32 %23, 0
  br i1 %24, label %31, label %25

25:                                               ; preds = %19
  %26 = load ptr, ptr %4, align 8
  %27 = getelementptr inbounds %struct.FT_Outline_, ptr %26, i32 0, i32 0
  %28 = load i16, ptr %27, align 8
  %29 = zext i16 %28 to i32
  %30 = icmp eq i32 %29, 0
  br i1 %30, label %31, label %40

31:                                               ; preds = %25, %19
  %32 = load ptr, ptr %5, align 8
  %33 = getelementptr inbounds %struct.FT_BBox_, ptr %32, i32 0, i32 2
  store i64 0, ptr %33, align 8
  %34 = load ptr, ptr %5, align 8
  %35 = getelementptr inbounds %struct.FT_BBox_, ptr %34, i32 0, i32 0
  store i64 0, ptr %35, align 8
  %36 = load ptr, ptr %5, align 8
  %37 = getelementptr inbounds %struct.FT_BBox_, ptr %36, i32 0, i32 3
  store i64 0, ptr %37, align 8
  %38 = load ptr, ptr %5, align 8
  %39 = getelementptr inbounds %struct.FT_BBox_, ptr %38, i32 0, i32 1
  store i64 0, ptr %39, align 8
  store i32 0, ptr %3, align 4
  br label %208

40:                                               ; preds = %25
  %41 = load ptr, ptr %4, align 8
  %42 = getelementptr inbounds %struct.FT_Outline_, ptr %41, i32 0, i32 2
  %43 = load ptr, ptr %42, align 8
  store ptr %43, ptr %8, align 8
  store i16 0, ptr %9, align 2
  br label %44

44:                                               ; preds = %167, %40
  %45 = load i16, ptr %9, align 2
  %46 = zext i16 %45 to i32
  %47 = load ptr, ptr %4, align 8
  %48 = getelementptr inbounds %struct.FT_Outline_, ptr %47, i32 0, i32 1
  %49 = load i16, ptr %48, align 2
  %50 = zext i16 %49 to i32
  %51 = icmp slt i32 %46, %50
  br i1 %51, label %52, label %170

52:                                               ; preds = %44
  br label %53

53:                                               ; preds = %52
  %54 = load ptr, ptr %8, align 8
  %55 = getelementptr inbounds %struct.FT_Vector_, ptr %54, i32 0, i32 0
  %56 = load i64, ptr %55, align 8
  %57 = getelementptr inbounds %struct.FT_BBox_, ptr %6, i32 0, i32 0
  %58 = load i64, ptr %57, align 8
  %59 = icmp slt i64 %56, %58
  br i1 %59, label %60, label %65

60:                                               ; preds = %53
  %61 = load ptr, ptr %8, align 8
  %62 = getelementptr inbounds %struct.FT_Vector_, ptr %61, i32 0, i32 0
  %63 = load i64, ptr %62, align 8
  %64 = getelementptr inbounds %struct.FT_BBox_, ptr %6, i32 0, i32 0
  store i64 %63, ptr %64, align 8
  br label %65

65:                                               ; preds = %60, %53
  %66 = load ptr, ptr %8, align 8
  %67 = getelementptr inbounds %struct.FT_Vector_, ptr %66, i32 0, i32 0
  %68 = load i64, ptr %67, align 8
  %69 = getelementptr inbounds %struct.FT_BBox_, ptr %6, i32 0, i32 2
  %70 = load i64, ptr %69, align 8
  %71 = icmp sgt i64 %68, %70
  br i1 %71, label %72, label %77

72:                                               ; preds = %65
  %73 = load ptr, ptr %8, align 8
  %74 = getelementptr inbounds %struct.FT_Vector_, ptr %73, i32 0, i32 0
  %75 = load i64, ptr %74, align 8
  %76 = getelementptr inbounds %struct.FT_BBox_, ptr %6, i32 0, i32 2
  store i64 %75, ptr %76, align 8
  br label %77

77:                                               ; preds = %72, %65
  %78 = load ptr, ptr %8, align 8
  %79 = getelementptr inbounds %struct.FT_Vector_, ptr %78, i32 0, i32 1
  %80 = load i64, ptr %79, align 8
  %81 = getelementptr inbounds %struct.FT_BBox_, ptr %6, i32 0, i32 1
  %82 = load i64, ptr %81, align 8
  %83 = icmp slt i64 %80, %82
  br i1 %83, label %84, label %89

84:                                               ; preds = %77
  %85 = load ptr, ptr %8, align 8
  %86 = getelementptr inbounds %struct.FT_Vector_, ptr %85, i32 0, i32 1
  %87 = load i64, ptr %86, align 8
  %88 = getelementptr inbounds %struct.FT_BBox_, ptr %6, i32 0, i32 1
  store i64 %87, ptr %88, align 8
  br label %89

89:                                               ; preds = %84, %77
  %90 = load ptr, ptr %8, align 8
  %91 = getelementptr inbounds %struct.FT_Vector_, ptr %90, i32 0, i32 1
  %92 = load i64, ptr %91, align 8
  %93 = getelementptr inbounds %struct.FT_BBox_, ptr %6, i32 0, i32 3
  %94 = load i64, ptr %93, align 8
  %95 = icmp sgt i64 %92, %94
  br i1 %95, label %96, label %101

96:                                               ; preds = %89
  %97 = load ptr, ptr %8, align 8
  %98 = getelementptr inbounds %struct.FT_Vector_, ptr %97, i32 0, i32 1
  %99 = load i64, ptr %98, align 8
  %100 = getelementptr inbounds %struct.FT_BBox_, ptr %6, i32 0, i32 3
  store i64 %99, ptr %100, align 8
  br label %101

101:                                              ; preds = %96, %89
  br label %102

102:                                              ; preds = %101
  %103 = load ptr, ptr %4, align 8
  %104 = getelementptr inbounds %struct.FT_Outline_, ptr %103, i32 0, i32 3
  %105 = load ptr, ptr %104, align 8
  %106 = load i16, ptr %9, align 2
  %107 = zext i16 %106 to i64
  %108 = getelementptr inbounds i8, ptr %105, i64 %107
  %109 = load i8, ptr %108, align 1
  %110 = zext i8 %109 to i32
  %111 = and i32 %110, 3
  %112 = icmp eq i32 %111, 1
  br i1 %112, label %113, label %164

113:                                              ; preds = %102
  br label %114

114:                                              ; preds = %113
  %115 = load ptr, ptr %8, align 8
  %116 = getelementptr inbounds %struct.FT_Vector_, ptr %115, i32 0, i32 0
  %117 = load i64, ptr %116, align 8
  %118 = getelementptr inbounds %struct.FT_BBox_, ptr %7, i32 0, i32 0
  %119 = load i64, ptr %118, align 8
  %120 = icmp slt i64 %117, %119
  br i1 %120, label %121, label %126

121:                                              ; preds = %114
  %122 = load ptr, ptr %8, align 8
  %123 = getelementptr inbounds %struct.FT_Vector_, ptr %122, i32 0, i32 0
  %124 = load i64, ptr %123, align 8
  %125 = getelementptr inbounds %struct.FT_BBox_, ptr %7, i32 0, i32 0
  store i64 %124, ptr %125, align 8
  br label %126

126:                                              ; preds = %121, %114
  %127 = load ptr, ptr %8, align 8
  %128 = getelementptr inbounds %struct.FT_Vector_, ptr %127, i32 0, i32 0
  %129 = load i64, ptr %128, align 8
  %130 = getelementptr inbounds %struct.FT_BBox_, ptr %7, i32 0, i32 2
  %131 = load i64, ptr %130, align 8
  %132 = icmp sgt i64 %129, %131
  br i1 %132, label %133, label %138

133:                                              ; preds = %126
  %134 = load ptr, ptr %8, align 8
  %135 = getelementptr inbounds %struct.FT_Vector_, ptr %134, i32 0, i32 0
  %136 = load i64, ptr %135, align 8
  %137 = getelementptr inbounds %struct.FT_BBox_, ptr %7, i32 0, i32 2
  store i64 %136, ptr %137, align 8
  br label %138

138:                                              ; preds = %133, %126
  %139 = load ptr, ptr %8, align 8
  %140 = getelementptr inbounds %struct.FT_Vector_, ptr %139, i32 0, i32 1
  %141 = load i64, ptr %140, align 8
  %142 = getelementptr inbounds %struct.FT_BBox_, ptr %7, i32 0, i32 1
  %143 = load i64, ptr %142, align 8
  %144 = icmp slt i64 %141, %143
  br i1 %144, label %145, label %150

145:                                              ; preds = %138
  %146 = load ptr, ptr %8, align 8
  %147 = getelementptr inbounds %struct.FT_Vector_, ptr %146, i32 0, i32 1
  %148 = load i64, ptr %147, align 8
  %149 = getelementptr inbounds %struct.FT_BBox_, ptr %7, i32 0, i32 1
  store i64 %148, ptr %149, align 8
  br label %150

150:                                              ; preds = %145, %138
  %151 = load ptr, ptr %8, align 8
  %152 = getelementptr inbounds %struct.FT_Vector_, ptr %151, i32 0, i32 1
  %153 = load i64, ptr %152, align 8
  %154 = getelementptr inbounds %struct.FT_BBox_, ptr %7, i32 0, i32 3
  %155 = load i64, ptr %154, align 8
  %156 = icmp sgt i64 %153, %155
  br i1 %156, label %157, label %162

157:                                              ; preds = %150
  %158 = load ptr, ptr %8, align 8
  %159 = getelementptr inbounds %struct.FT_Vector_, ptr %158, i32 0, i32 1
  %160 = load i64, ptr %159, align 8
  %161 = getelementptr inbounds %struct.FT_BBox_, ptr %7, i32 0, i32 3
  store i64 %160, ptr %161, align 8
  br label %162

162:                                              ; preds = %157, %150
  br label %163

163:                                              ; preds = %162
  br label %164

164:                                              ; preds = %163, %102
  %165 = load ptr, ptr %8, align 8
  %166 = getelementptr inbounds %struct.FT_Vector_, ptr %165, i32 1
  store ptr %166, ptr %8, align 8
  br label %167

167:                                              ; preds = %164
  %168 = load i16, ptr %9, align 2
  %169 = add i16 %168, 1
  store i16 %169, ptr %9, align 2
  br label %44, !llvm.loop !4

170:                                              ; preds = %44
  %171 = getelementptr inbounds %struct.FT_BBox_, ptr %6, i32 0, i32 0
  %172 = load i64, ptr %171, align 8
  %173 = getelementptr inbounds %struct.FT_BBox_, ptr %7, i32 0, i32 0
  %174 = load i64, ptr %173, align 8
  %175 = icmp slt i64 %172, %174
  br i1 %175, label %194, label %176

176:                                              ; preds = %170
  %177 = getelementptr inbounds %struct.FT_BBox_, ptr %6, i32 0, i32 2
  %178 = load i64, ptr %177, align 8
  %179 = getelementptr inbounds %struct.FT_BBox_, ptr %7, i32 0, i32 2
  %180 = load i64, ptr %179, align 8
  %181 = icmp sgt i64 %178, %180
  br i1 %181, label %194, label %182

182:                                              ; preds = %176
  %183 = getelementptr inbounds %struct.FT_BBox_, ptr %6, i32 0, i32 1
  %184 = load i64, ptr %183, align 8
  %185 = getelementptr inbounds %struct.FT_BBox_, ptr %7, i32 0, i32 1
  %186 = load i64, ptr %185, align 8
  %187 = icmp slt i64 %184, %186
  br i1 %187, label %194, label %188

188:                                              ; preds = %182
  %189 = getelementptr inbounds %struct.FT_BBox_, ptr %6, i32 0, i32 3
  %190 = load i64, ptr %189, align 8
  %191 = getelementptr inbounds %struct.FT_BBox_, ptr %7, i32 0, i32 3
  %192 = load i64, ptr %191, align 8
  %193 = icmp sgt i64 %190, %192
  br i1 %193, label %194, label %205

194:                                              ; preds = %188, %182, %176, %170
  %195 = getelementptr inbounds %struct.TBBox_Rec_, ptr %11, i32 0, i32 1
  call void @llvm.memcpy.p0.p0.i64(ptr align 8 %195, ptr align 8 %7, i64 32, i1 false)
  %196 = load ptr, ptr %4, align 8
  %197 = call i32 @FT_Outline_Decompose(ptr noundef %196, ptr noundef @bbox_interface, ptr noundef %11)
  store i32 %197, ptr %10, align 4
  %198 = load i32, ptr %10, align 4
  %199 = icmp ne i32 %198, 0
  br i1 %199, label %200, label %202

200:                                              ; preds = %194
  %201 = load i32, ptr %10, align 4
  store i32 %201, ptr %3, align 4
  br label %208

202:                                              ; preds = %194
  %203 = load ptr, ptr %5, align 8
  %204 = getelementptr inbounds %struct.TBBox_Rec_, ptr %11, i32 0, i32 1
  call void @llvm.memcpy.p0.p0.i64(ptr align 8 %203, ptr align 8 %204, i64 32, i1 false)
  br label %207

205:                                              ; preds = %188
  %206 = load ptr, ptr %5, align 8
  call void @llvm.memcpy.p0.p0.i64(ptr align 8 %206, ptr align 8 %7, i64 32, i1 false)
  br label %207

207:                                              ; preds = %205, %202
  store i32 0, ptr %3, align 4
  br label %208

208:                                              ; preds = %207, %200, %31, %18, %14
  %209 = load i32, ptr %3, align 4
  ret i32 %209
}