; Function Attrs: nounwind uwtable
define i32 @FT_Outline_Get_BBox(ptr noundef %0, ptr noundef writeonly %1) local_unnamed_addr #0 {
  %3 = alloca %struct.TBBox_Rec_, align 8
  %.not = icmp eq ptr %1, null
  br i1 %.not, label %39, label %4

4:                                                ; preds = %2
  %.not69 = icmp eq ptr %0, null
  br i1 %.not69, label %39, label %5

5:                                                ; preds = %4
  %6 = getelementptr inbounds i8, ptr %0, i64 2
  %7 = load i16, ptr %6, align 2
  %8 = icmp eq i16 %7, 0
  br i1 %8, label %12, label %9

9:                                                ; preds = %5
  %10 = load i16, ptr %0, align 8
  %11 = icmp eq i16 %10, 0
  br i1 %11, label %12, label %13

12:                                               ; preds = %9, %5
  tail call void @llvm.memset.p0.i64(ptr noundef nonnull align 8 dereferenceable(32) %1, i8 0, i64 32, i1 false)
  br label %39

13:                                               ; preds = %9
  %14 = getelementptr inbounds i8, ptr %0, i64 8
  %15 = load ptr, ptr %14, align 8
  %16 = getelementptr inbounds i8, ptr %0, i64 16
  %17 = load ptr, ptr %16, align 8
  %wide.trip.count = zext i16 %7 to i64
  br label %18

18:                                               ; preds = %13, %27
  %indvars.iv = phi i64 [ 0, %13 ], [ %indvars.iv.next, %27 ]
  %.05783 = phi ptr [ %15, %13 ], [ %28, %27 ]
  %.sroa.0.082 = phi i64 [ 2147483647, %13 ], [ %.sroa.0.2, %27 ]
  %.sroa.6.081 = phi i64 [ 2147483647, %13 ], [ %.sroa.6.2, %27 ]
  %.sroa.9.080 = phi i64 [ -2147483647, %13 ], [ %.sroa.9.2, %27 ]
  %.sroa.12.079 = phi i64 [ -2147483647, %13 ], [ %.sroa.12.1, %27 ]
  %.sroa.036.078 = phi i64 [ 2147483647, %13 ], [ %spec.select, %27 ]
  %.sroa.4.077 = phi i64 [ 2147483647, %13 ], [ %.sroa.4.1, %27 ]
  %.sroa.7.076 = phi i64 [ -2147483647, %13 ], [ %.sroa.7.1, %27 ]
  %.sroa.10.075 = phi i64 [ -2147483647, %13 ], [ %.sroa.10.1, %27 ]
  %19 = load i64, ptr %.05783, align 8
  %spec.select = tail call i64 @llvm.smin.i64(i64 %19, i64 %.sroa.036.078)
  %.sroa.7.1 = tail call i64 @llvm.smax.i64(i64 %19, i64 %.sroa.7.076)
  %20 = getelementptr inbounds i8, ptr %.05783, i64 8
  %21 = load i64, ptr %20, align 8
  %.sroa.4.1 = tail call i64 @llvm.smin.i64(i64 %21, i64 %.sroa.4.077)
  %.sroa.10.1 = tail call i64 @llvm.smax.i64(i64 %21, i64 %.sroa.10.075)
  %22 = getelementptr inbounds i8, ptr %17, i64 %indvars.iv
  %23 = load i8, ptr %22, align 1
  %24 = and i8 %23, 3
  %25 = icmp eq i8 %24, 1
  br i1 %25, label %26, label %27

26:                                               ; preds = %18
  %spec.select71 = tail call i64 @llvm.smin.i64(i64 %19, i64 %.sroa.0.082)
  %.sroa.9.1 = tail call i64 @llvm.smax.i64(i64 %19, i64 %.sroa.9.080)
  %.sroa.6.1 = tail call i64 @llvm.smin.i64(i64 %21, i64 %.sroa.6.081)
  %spec.select74 = tail call i64 @llvm.smax.i64(i64 %21, i64 %.sroa.12.079)
  br label %27

27:                                               ; preds = %26, %18
  %.sroa.12.1 = phi i64 [ %.sroa.12.079, %18 ], [ %spec.select74, %26 ]
  %.sroa.9.2 = phi i64 [ %.sroa.9.080, %18 ], [ %.sroa.9.1, %26 ]
  %.sroa.6.2 = phi i64 [ %.sroa.6.081, %18 ], [ %.sroa.6.1, %26 ]
  %.sroa.0.2 = phi i64 [ %.sroa.0.082, %18 ], [ %spec.select71, %26 ]
  %28 = getelementptr inbounds i8, ptr %.05783, i64 16
  %indvars.iv.next = add nuw nsw i64 %indvars.iv, 1
  %exitcond.not = icmp eq i64 %indvars.iv.next, %wide.trip.count
  br i1 %exitcond.not, label %29, label %18, !llvm.loop !4

29:                                               ; preds = %27
  %30 = icmp slt i64 %spec.select, %.sroa.0.2
  %31 = icmp sgt i64 %.sroa.7.1, %.sroa.9.2
  %or.cond = select i1 %30, i1 true, i1 %31
  %32 = icmp slt i64 %.sroa.4.1, %.sroa.6.2
  %or.cond72 = select i1 %or.cond, i1 true, i1 %32
  %33 = icmp sgt i64 %.sroa.10.1, %.sroa.12.1
  %or.cond73 = select i1 %or.cond72, i1 true, i1 %33
  br i1 %or.cond73, label %34, label %38

34:                                               ; preds = %29
  %35 = getelementptr inbounds i8, ptr %3, i64 16
  store i64 %.sroa.0.2, ptr %35, align 8
  %.sroa.6.0..sroa_idx = getelementptr inbounds i8, ptr %3, i64 24
  store i64 %.sroa.6.2, ptr %.sroa.6.0..sroa_idx, align 8
  %.sroa.9.0..sroa_idx = getelementptr inbounds i8, ptr %3, i64 32
  store i64 %.sroa.9.2, ptr %.sroa.9.0..sroa_idx, align 8
  %.sroa.12.0..sroa_idx = getelementptr inbounds i8, ptr %3, i64 40
  store i64 %.sroa.12.1, ptr %.sroa.12.0..sroa_idx, align 8
  %36 = call i32 @FT_Outline_Decompose(ptr noundef nonnull %0, ptr noundef nonnull @bbox_interface, ptr noundef nonnull %3) #8
  %.not70 = icmp eq i32 %36, 0
  br i1 %.not70, label %37, label %39

37:                                               ; preds = %34
  call void @llvm.memcpy.p0.p0.i64(ptr noundef nonnull align 8 dereferenceable(32) %1, ptr noundef nonnull align 8 dereferenceable(32) %35, i64 32, i1 false)
  br label %39

38:                                               ; preds = %29
  store i64 %.sroa.0.2, ptr %1, align 8
  %.sroa.6.0..sroa_idx25 = getelementptr inbounds i8, ptr %1, i64 8
  store i64 %.sroa.6.2, ptr %.sroa.6.0..sroa_idx25, align 8
  %.sroa.9.0..sroa_idx29 = getelementptr inbounds i8, ptr %1, i64 16
  store i64 %.sroa.9.2, ptr %.sroa.9.0..sroa_idx29, align 8
  %.sroa.12.0..sroa_idx33 = getelementptr inbounds i8, ptr %1, i64 24
  store i64 %.sroa.12.1, ptr %.sroa.12.0..sroa_idx33, align 8
  br label %39

39:                                               ; preds = %37, %38, %34, %4, %2, %12
  %.0 = phi i32 [ 0, %12 ], [ 6, %2 ], [ 20, %4 ], [ %36, %34 ], [ 0, %38 ], [ 0, %37 ]
  ret i32 %.0
}